target datalayout = "e-m:e-p270:32:32-p271:32:32-p272:64:64-i64:64-i128:128-f80:128-n8:16:32:64-S128"
target triple = "x86_64-pc-linux-gnu"

%class.NativeCallStack = type { [4 x ptr] }
%class.ThreadCritical = type { i8 }

@_ZN10MemTracker15_tracking_levelE = external global i32, align 4

; Function Attrs: mustprogress nounwind uwtable
define linkonce_odr hidden noundef zeroext i1 @_ZN10MemTracker7enabledEv() #1 comdat align 2 {
  %1 = load i32, ptr @_ZN10MemTracker15_tracking_levelE, align 4
  %2 = icmp sgt i32 %1, 1
  ret i1 %2
}

; Function Attrs: mustprogress nounwind uwtable
define linkonce_odr hidden void @_ZN10MemTracker16assert_post_initEv() #1 comdat align 2 {
  ret void
}

; Function Attrs: mustprogress nounwind uwtable
define linkonce_odr hidden void @_ZN10MemTracker40record_virtual_memory_reserve_and_commitEPvmRK15NativeCallStack8MEMFLAGS(ptr noundef %0, i64 noundef %1, ptr noundef nonnull align 8 dereferenceable(32) %2, i8 noundef zeroext %3) #1 comdat align 2 {
  %5 = alloca ptr, align 8
  %6 = alloca i64, align 8
  %7 = alloca ptr, align 8
  %8 = alloca i8, align 1
  %9 = alloca %class.ThreadCritical, align 1
  store ptr %0, ptr %5, align 8
  store i64 %1, ptr %6, align 8
  store ptr %2, ptr %7, align 8
  store i8 %3, ptr %8, align 1
  call void @_ZN10MemTracker16assert_post_initEv()
  %10 = call noundef zeroext i1 @_ZN10MemTracker7enabledEv()
  br i1 %10, label %12, label %11

11:                                               ; preds = %4
  br label %25

12:                                               ; preds = %4
  %13 = load ptr, ptr %5, align 8
  %14 = icmp ne ptr %13, null
  br i1 %14, label %15, label %25

15:                                               ; preds = %12
  call void @_ZN14ThreadCriticalC1Ev(ptr noundef nonnull align 1 dereferenceable(1) %9)
  %16 = load ptr, ptr %5, align 8
  %17 = load i64, ptr %6, align 8
  %18 = load ptr, ptr %7, align 8
  %19 = load i8, ptr %8, align 1
  %20 = call noundef zeroext i1 @_ZN20VirtualMemoryTracker19add_reserved_regionEPhmRK15NativeCallStack8MEMFLAGS(ptr noundef %16, i64 noundef %17, ptr noundef nonnull align 8 dereferenceable(32) %18, i8 noundef zeroext %19)
  %21 = load ptr, ptr %5, align 8
  %22 = load i64, ptr %6, align 8
  %23 = load ptr, ptr %7, align 8
  %24 = call noundef zeroext i1 @_ZN20VirtualMemoryTracker20add_committed_regionEPhmRK15NativeCallStack(ptr noundef %21, i64 noundef %22, ptr noundef nonnull align 8 dereferenceable(32) %23)
  call void @_ZN14ThreadCriticalD1Ev(ptr noundef nonnull align 1 dereferenceable(1) %9) #13
  br label %25

25:                                               ; preds = %15, %12, %11
  ret void
}

; Function Attrs: mustprogress nounwind uwtable
define linkonce_odr hidden void @_ZN15NativeCallStackC2ENS_10FakeMarkerE(ptr noundef nonnull align 8 dereferenceable(32) %0, i32 noundef %1) unnamed_addr #1 comdat align 2 {
  %3 = alloca ptr, align 8
  %4 = alloca i32, align 4
  store ptr %0, ptr %3, align 8
  store i32 %1, ptr %4, align 4
  ret void
}

; Function Attrs: mustprogress nounwind uwtable
define linkonce_odr hidden noundef i32 @_ZN10MemTracker14tracking_levelEv() #1 comdat align 2 {
  %1 = load i32, ptr @_ZN10MemTracker15_tracking_levelE, align 4
  ret i32 %1
}

; Function Attrs: mustprogress nounwind uwtable
define hidden noundef ptr @_ZN2os10map_memoryEiPKcmPcmbb8MEMFLAGS(i32 noundef %0, ptr noundef %1, i64 noundef %2, ptr noundef %3, i64 noundef %4, i1 noundef zeroext %5, i1 noundef zeroext %6, i8 noundef zeroext %7) #1 align 2 {
  %9 = alloca i32, align 4
  %10 = alloca ptr, align 8
  %11 = alloca i64, align 8
  %12 = alloca ptr, align 8
  %13 = alloca i64, align 8
  %14 = alloca i8, align 1
  %15 = alloca i8, align 1
  %16 = alloca i8, align 1
  %17 = alloca ptr, align 8
  %18 = alloca %class.NativeCallStack, align 8
  store i32 %0, ptr %9, align 4
  store ptr %1, ptr %10, align 8
  store i64 %2, ptr %11, align 8
  store ptr %3, ptr %12, align 8
  store i64 %4, ptr %13, align 8
  %19 = zext i1 %5 to i8
  store i8 %19, ptr %14, align 1
  %20 = zext i1 %6 to i8
  store i8 %20, ptr %15, align 1
  store i8 %7, ptr %16, align 1
  %21 = load i32, ptr %9, align 4
  %22 = load ptr, ptr %10, align 8
  %23 = load i64, ptr %11, align 8
  %24 = load ptr, ptr %12, align 8
  %25 = load i64, ptr %13, align 8
  %26 = load i8, ptr %14, align 1
  %27 = trunc i8 %26 to i1
  %28 = load i8, ptr %15, align 1
  %29 = trunc i8 %28 to i1
  %30 = call noundef ptr @_ZN2os13pd_map_memoryEiPKcmPcmbb(i32 noundef %21, ptr noundef %22, i64 noundef %23, ptr noundef %24, i64 noundef %25, i1 noundef zeroext %27, i1 noundef zeroext %29)
  store ptr %30, ptr %17, align 8
  %31 = load ptr, ptr %17, align 8
  %32 = icmp ne ptr %31, null
  br i1 %32, label %33, label %42

33:                                               ; preds = %8
  %34 = load ptr, ptr %17, align 8
  %35 = load i64, ptr %13, align 8
  %36 = call noundef i32 @_ZN10MemTracker14tracking_levelEv()
  %37 = icmp eq i32 %36, 3
  br i1 %37, label %38, label %39

38:                                               ; preds = %33
  call void @_ZN15NativeCallStackC1Ei(ptr noundef nonnull align 8 dereferenceable(32) %18, i32 noundef 1)
  br label %40

39:                                               ; preds = %33
  call void @_ZN15NativeCallStackC2ENS_10FakeMarkerE(ptr noundef nonnull align 8 dereferenceable(32) %18, i32 noundef 0)
  br label %40

40:                                               ; preds = %39, %38
  %41 = load i8, ptr %16, align 1
  call void @_ZN10MemTracker40record_virtual_memory_reserve_and_commitEPvmRK15NativeCallStack8MEMFLAGS(ptr noundef %34, i64 noundef %35, ptr noundef nonnull align 8 dereferenceable(32) %18, i8 noundef zeroext %41)
  br label %42

42:                                               ; preds = %40, %8
  %43 = load ptr, ptr %17, align 8
  ret ptr %43
}