; Function Attrs: mustprogress nounwind uwtable
define hidden noundef ptr @_ZN2os10map_memoryEiPKcmPcmbb8MEMFLAGS(i32 noundef %0, ptr noundef %1, i64 noundef %2, ptr noundef %3, i64 noundef %4, i1 noundef zeroext %5, i1 noundef zeroext %6, i8 noundef zeroext %7) local_unnamed_addr #3 align 2 {
  %9 = alloca %class.ThreadCritical, align 1
  %10 = alloca %class.NativeCallStack, align 8
  %11 = tail call noundef ptr @_ZN2os13pd_map_memoryEiPKcmPcmbb(i32 noundef %0, ptr noundef %1, i64 noundef %2, ptr noundef %3, i64 noundef %4, i1 noundef zeroext %5, i1 noundef zeroext %6) #28
  %.not = icmp eq ptr %11, null
  br i1 %.not, label %22, label %12

12:                                               ; preds = %8
  %13 = load i32, ptr @_ZN10MemTracker15_tracking_levelE, align 4
  %14 = icmp eq i32 %13, 3
  br i1 %14, label %15, label %16

15:                                               ; preds = %12
  call void @_ZN15NativeCallStackC1Ei(ptr noundef nonnull align 8 dereferenceable(32) %10, i32 noundef 1) #28
  %.pr = load i32, ptr @_ZN10MemTracker15_tracking_levelE, align 4
  br label %16

16:                                               ; preds = %12, %15
  %17 = phi i32 [ %13, %12 ], [ %.pr, %15 ]
  call void @llvm.lifetime.start.p0(i64 1, ptr nonnull %9)
  %18 = icmp sgt i32 %17, 1
  br i1 %18, label %19, label %_ZN10MemTracker40record_virtual_memory_reserve_and_commitEPvmRK15NativeCallStack8MEMFLAGS.exit

19:                                               ; preds = %16
  call void @_ZN14ThreadCriticalC1Ev(ptr noundef nonnull align 1 dereferenceable(1) %9) #28
  %20 = call noundef zeroext i1 @_ZN20VirtualMemoryTracker19add_reserved_regionEPhmRK15NativeCallStack8MEMFLAGS(ptr noundef nonnull %11, i64 noundef %4, ptr noundef nonnull align 8 dereferenceable(32) %10, i8 noundef zeroext %7) #28
  %21 = call noundef zeroext i1 @_ZN20VirtualMemoryTracker20add_committed_regionEPhmRK15NativeCallStack(ptr noundef nonnull %11, i64 noundef %4, ptr noundef nonnull align 8 dereferenceable(32) %10) #28
  call void @_ZN14ThreadCriticalD1Ev(ptr noundef nonnull align 1 dereferenceable(1) %9) #28
  br label %_ZN10MemTracker40record_virtual_memory_reserve_and_commitEPvmRK15NativeCallStack8MEMFLAGS.exit

_ZN10MemTracker40record_virtual_memory_reserve_and_commitEPvmRK15NativeCallStack8MEMFLAGS.exit: ; preds = %16, %19
  call void @llvm.lifetime.end.p0(i64 1, ptr nonnull %9)
  br label %22

22:                                               ; preds = %_ZN10MemTracker40record_virtual_memory_reserve_and_commitEPvmRK15NativeCallStack8MEMFLAGS.exit, %8
  ret ptr %11
}